target datalayout = "e-m:e-p270:32:32-p271:32:32-p272:64:64-i64:64-i128:128-f80:128-n8:16:32:64-S128"
target triple = "x86_64-pc-linux-gnu"

%"struct.duckdb::LogicalType" = type { i8, i8, %"class.duckdb::shared_ptr" }
%"class.duckdb::shared_ptr" = type { %"class.std::shared_ptr" }
%"class.std::shared_ptr" = type { %"class.std::__shared_ptr" }
%"class.std::__shared_ptr" = type { ptr, %"class.std::__shared_count" }
%"class.std::__shared_count" = type { ptr }
%"struct.duckdb::FunctionData" = type { ptr }
%"struct.duckdb::ListSliceBindData" = type <{ %"struct.duckdb::FunctionData", %"struct.duckdb::LogicalType", i8, i8, [6 x i8] }>

; Function Attrs: mustprogress nounwind uwtable
define linkonce_odr void @_ZN6duckdb16DynamicCastCheckINS_17ListSliceBindDataENS_12FunctionDataEEEvPKT0_(ptr noundef %0) #6 comdat {
  %2 = alloca ptr, align 8
  store ptr %0, ptr %2, align 8, !tbaa !259
  ret void
}

; Function Attrs: mustprogress nounwind uwtable
define linkonce_odr noundef nonnull align 8 dereferenceable(34) ptr @_ZNK6duckdb12FunctionData4CastINS_17ListSliceBindDataEEERKT_v(ptr noundef nonnull align 8 dereferenceable(8) %0) #6 comdat align 2 {
  %2 = alloca ptr, align 8
  store ptr %0, ptr %2, align 8, !tbaa !259
  %3 = load ptr, ptr %2, align 8
  call void @_ZN6duckdb16DynamicCastCheckINS_17ListSliceBindDataENS_12FunctionDataEEEvPKT0_(ptr noundef %3)
  ret ptr %3
}

; Function Attrs: mustprogress uwtable
define noundef zeroext i1 @_ZNK6duckdb17ListSliceBindData6EqualsERKNS_12FunctionDataE(ptr noundef nonnull align 8 dereferenceable(34) %0, ptr noundef nonnull align 8 dereferenceable(8) %1) unnamed_addr #4 align 2 {
  %3 = alloca ptr, align 8
  %4 = alloca ptr, align 8
  %5 = alloca ptr, align 8
  store ptr %0, ptr %3, align 8, !tbaa !275
  store ptr %1, ptr %4, align 8, !tbaa !259
  %6 = load ptr, ptr %3, align 8
  call void @llvm.lifetime.start.p0(i64 8, ptr %5) #3
  %7 = load ptr, ptr %4, align 8, !tbaa !259
  %8 = call noundef nonnull align 8 dereferenceable(34) ptr @_ZNK6duckdb12FunctionData4CastINS_17ListSliceBindDataEEERKT_v(ptr noundef nonnull align 8 dereferenceable(8) %7)
  store ptr %8, ptr %5, align 8, !tbaa !275
  %9 = getelementptr inbounds nuw %"struct.duckdb::ListSliceBindData", ptr %6, i32 0, i32 1
  %10 = load ptr, ptr %5, align 8, !tbaa !275
  %11 = getelementptr inbounds nuw %"struct.duckdb::ListSliceBindData", ptr %10, i32 0, i32 1
  %12 = call noundef zeroext i1 @_ZNK6duckdb11LogicalTypeeqERKS0_(ptr noundef nonnull align 8 dereferenceable(24) %9, ptr noundef nonnull align 8 dereferenceable(24) %11)
  br i1 %12, label %13, label %35

13:                                               ; preds = %2
  %14 = getelementptr inbounds nuw %"struct.duckdb::ListSliceBindData", ptr %6, i32 0, i32 2
  %15 = load i8, ptr %14, align 8, !tbaa !277, !range !151, !noundef !152
  %16 = trunc i8 %15 to i1
  %17 = zext i1 %16 to i32
  %18 = load ptr, ptr %5, align 8, !tbaa !275
  %19 = getelementptr inbounds nuw %"struct.duckdb::ListSliceBindData", ptr %18, i32 0, i32 2
  %20 = load i8, ptr %19, align 8, !tbaa !277, !range !151, !noundef !152
  %21 = trunc i8 %20 to i1
  %22 = zext i1 %21 to i32
  %23 = icmp eq i32 %17, %22
  br i1 %23, label %24, label %35

24:                                               ; preds = %13
  %25 = getelementptr inbounds nuw %"struct.duckdb::ListSliceBindData", ptr %6, i32 0, i32 3
  %26 = load i8, ptr %25, align 1, !tbaa !280, !range !151, !noundef !152
  %27 = trunc i8 %26 to i1
  %28 = zext i1 %27 to i32
  %29 = load ptr, ptr %5, align 8, !tbaa !275
  %30 = getelementptr inbounds nuw %"struct.duckdb::ListSliceBindData", ptr %29, i32 0, i32 3
  %31 = load i8, ptr %30, align 1, !tbaa !280, !range !151, !noundef !152
  %32 = trunc i8 %31 to i1
  %33 = zext i1 %32 to i32
  %34 = icmp eq i32 %28, %33
  br label %35

35:                                               ; preds = %24, %13, %2
  %36 = phi i1 [ false, %13 ], [ false, %2 ], [ %34, %24 ]
  call void @llvm.lifetime.end.p0(i64 8, ptr %5) #3
  ret i1 %36
}