; Function Attrs: mustprogress uwtable
define noundef zeroext i1 @_ZNK6duckdb17ListSliceBindData6EqualsERKNS_12FunctionDataE(ptr noundef nonnull align 8 dereferenceable(34) %0, ptr noundef nonnull align 8 dereferenceable(8) %1) unnamed_addr #3 align 2 {
  %3 = getelementptr inbounds nuw i8, ptr %0, i64 8
  %4 = getelementptr inbounds nuw i8, ptr %1, i64 8
  %5 = tail call noundef zeroext i1 @_ZNK6duckdb11LogicalTypeeqERKS0_(ptr noundef nonnull align 8 dereferenceable(24) %3, ptr noundef nonnull align 8 dereferenceable(24) %4)
  br i1 %5, label %6, label %18

6:                                                ; preds = %2
  %7 = getelementptr inbounds nuw i8, ptr %0, i64 32
  %8 = load i8, ptr %7, align 8, !tbaa !731, !range !710, !noundef !711
  %9 = getelementptr inbounds nuw i8, ptr %1, i64 32
  %10 = load i8, ptr %9, align 8, !tbaa !731, !range !710, !noundef !711
  %11 = icmp eq i8 %8, %10
  br i1 %11, label %12, label %18

12:                                               ; preds = %6
  %13 = getelementptr inbounds nuw i8, ptr %0, i64 33
  %14 = load i8, ptr %13, align 1, !tbaa !734, !range !710, !noundef !711
  %15 = getelementptr inbounds nuw i8, ptr %1, i64 33
  %16 = load i8, ptr %15, align 1, !tbaa !734, !range !710, !noundef !711
  %17 = icmp eq i8 %14, %16
  br label %18

18:                                               ; preds = %12, %6, %2
  %19 = phi i1 [ false, %6 ], [ false, %2 ], [ %17, %12 ]
  ret i1 %19
}